target datalayout = "e-m:e-p270:32:32-p271:32:32-p272:64:64-i64:64-i128:128-f80:128-n8:16:32:64-S128"
target triple = "x86_64-pc-linux-gnu"

; Function Attrs: mustprogress nounwind uwtable
define dso_local noundef i32 @_Z18scaledOffsetOpcodejRj(i32 noundef %0, ptr noundef nonnull align 4 dereferenceable(4) %1) #0 {
  %3 = alloca i32, align 4
  %4 = alloca i32, align 4
  %5 = alloca ptr, align 8
  store i32 %0, ptr %4, align 4
  store ptr %1, ptr %5, align 8
  %6 = load i32, ptr %4, align 4
  switch i32 %6, label %7 [
    i32 4554, label %8
    i32 6810, label %10
    i32 4551, label %12
    i32 6807, label %14
    i32 4562, label %16
    i32 6813, label %18
    i32 4561, label %20
    i32 4559, label %22
    i32 6812, label %24
    i32 4553, label %26
    i32 6809, label %28
    i32 4552, label %30
    i32 6808, label %32
    i32 4558, label %34
    i32 4557, label %36
    i32 4550, label %38
    i32 4549, label %40
    i32 4556, label %42
    i32 4555, label %44
    i32 6806, label %46
    i32 6805, label %48
    i32 4407, label %50
    i32 6781, label %50
    i32 4391, label %53
    i32 6766, label %53
    i32 4451, label %53
    i32 6796, label %53
    i32 4445, label %56
    i32 4433, label %56
    i32 6791, label %56
    i32 4401, label %59
    i32 6776, label %59
    i32 4396, label %59
    i32 6771, label %59
    i32 4427, label %59
    i32 4422, label %59
    i32 4385, label %62
    i32 4380, label %62
    i32 4417, label %62
    i32 4412, label %62
    i32 6761, label %62
    i32 6756, label %62
  ]

7:                                                ; preds = %2
  unreachable

8:                                                ; preds = %2
  %9 = load ptr, ptr %5, align 8
  store i32 16, ptr %9, align 4
  store i32 4407, ptr %3, align 4
  br label %65

10:                                               ; preds = %2
  %11 = load ptr, ptr %5, align 8
  store i32 16, ptr %11, align 4
  store i32 6781, ptr %3, align 4
  br label %65

12:                                               ; preds = %2
  %13 = load ptr, ptr %5, align 8
  store i32 8, ptr %13, align 4
  store i32 4391, ptr %3, align 4
  br label %65

14:                                               ; preds = %2
  %15 = load ptr, ptr %5, align 8
  store i32 8, ptr %15, align 4
  store i32 6766, ptr %3, align 4
  br label %65

16:                                               ; preds = %2
  %17 = load ptr, ptr %5, align 8
  store i32 8, ptr %17, align 4
  store i32 4451, ptr %3, align 4
  br label %65

18:                                               ; preds = %2
  %19 = load ptr, ptr %5, align 8
  store i32 8, ptr %19, align 4
  store i32 6796, ptr %3, align 4
  br label %65

20:                                               ; preds = %2
  %21 = load ptr, ptr %5, align 8
  store i32 4, ptr %21, align 4
  store i32 4445, ptr %3, align 4
  br label %65

22:                                               ; preds = %2
  %23 = load ptr, ptr %5, align 8
  store i32 4, ptr %23, align 4
  store i32 4433, ptr %3, align 4
  br label %65

24:                                               ; preds = %2
  %25 = load ptr, ptr %5, align 8
  store i32 4, ptr %25, align 4
  store i32 6791, ptr %3, align 4
  br label %65

26:                                               ; preds = %2
  %27 = load ptr, ptr %5, align 8
  store i32 2, ptr %27, align 4
  store i32 4401, ptr %3, align 4
  br label %65

28:                                               ; preds = %2
  %29 = load ptr, ptr %5, align 8
  store i32 2, ptr %29, align 4
  store i32 6776, ptr %3, align 4
  br label %65

30:                                               ; preds = %2
  %31 = load ptr, ptr %5, align 8
  store i32 2, ptr %31, align 4
  store i32 4396, ptr %3, align 4
  br label %65

32:                                               ; preds = %2
  %33 = load ptr, ptr %5, align 8
  store i32 2, ptr %33, align 4
  store i32 6771, ptr %3, align 4
  br label %65

34:                                               ; preds = %2
  %35 = load ptr, ptr %5, align 8
  store i32 2, ptr %35, align 4
  store i32 4427, ptr %3, align 4
  br label %65

36:                                               ; preds = %2
  %37 = load ptr, ptr %5, align 8
  store i32 2, ptr %37, align 4
  store i32 4422, ptr %3, align 4
  br label %65

38:                                               ; preds = %2
  %39 = load ptr, ptr %5, align 8
  store i32 1, ptr %39, align 4
  store i32 4385, ptr %3, align 4
  br label %65

40:                                               ; preds = %2
  %41 = load ptr, ptr %5, align 8
  store i32 1, ptr %41, align 4
  store i32 4380, ptr %3, align 4
  br label %65

42:                                               ; preds = %2
  %43 = load ptr, ptr %5, align 8
  store i32 1, ptr %43, align 4
  store i32 4417, ptr %3, align 4
  br label %65

44:                                               ; preds = %2
  %45 = load ptr, ptr %5, align 8
  store i32 1, ptr %45, align 4
  store i32 4412, ptr %3, align 4
  br label %65

46:                                               ; preds = %2
  %47 = load ptr, ptr %5, align 8
  store i32 1, ptr %47, align 4
  store i32 6761, ptr %3, align 4
  br label %65

48:                                               ; preds = %2
  %49 = load ptr, ptr %5, align 8
  store i32 1, ptr %49, align 4
  store i32 6756, ptr %3, align 4
  br label %65

50:                                               ; preds = %2, %2
  %51 = load ptr, ptr %5, align 8
  store i32 16, ptr %51, align 4
  %52 = load i32, ptr %4, align 4
  store i32 %52, ptr %3, align 4
  br label %65

53:                                               ; preds = %2, %2, %2, %2
  %54 = load ptr, ptr %5, align 8
  store i32 8, ptr %54, align 4
  %55 = load i32, ptr %4, align 4
  store i32 %55, ptr %3, align 4
  br label %65

56:                                               ; preds = %2, %2, %2
  %57 = load ptr, ptr %5, align 8
  store i32 4, ptr %57, align 4
  %58 = load i32, ptr %4, align 4
  store i32 %58, ptr %3, align 4
  br label %65

59:                                               ; preds = %2, %2, %2, %2, %2, %2
  %60 = load ptr, ptr %5, align 8
  store i32 2, ptr %60, align 4
  %61 = load i32, ptr %4, align 4
  store i32 %61, ptr %3, align 4
  br label %65

62:                                               ; preds = %2, %2, %2, %2, %2, %2
  %63 = load ptr, ptr %5, align 8
  store i32 1, ptr %63, align 4
  %64 = load i32, ptr %4, align 4
  store i32 %64, ptr %3, align 4
  br label %65

65:                                               ; preds = %62, %59, %56, %53, %50, %48, %46, %44, %42, %40, %38, %36, %34, %32, %30, %28, %26, %24, %22, %20, %18, %16, %14, %12, %10, %8
  %66 = load i32, ptr %3, align 4
  ret i32 %66
}