; Function Attrs: mustprogress nofree norecurse nosync nounwind willreturn memory(argmem: write) uwtable
define dso_local noundef i32 @_Z18scaledOffsetOpcodejRj(i32 noundef %0, ptr nocapture noundef nonnull writeonly align 4 dereferenceable(4) %1) local_unnamed_addr #0 {
  switch i32 %0, label %3 [
    i32 4554, label %29
    i32 6810, label %4
    i32 4551, label %5
    i32 6807, label %6
    i32 4562, label %7
    i32 6813, label %8
    i32 4561, label %9
    i32 4559, label %10
    i32 6812, label %11
    i32 4553, label %12
    i32 6809, label %13
    i32 4552, label %14
    i32 6808, label %15
    i32 4558, label %16
    i32 4557, label %17
    i32 4550, label %18
    i32 4549, label %19
    i32 4556, label %20
    i32 4555, label %21
    i32 6806, label %22
    i32 6805, label %23
    i32 4407, label %24
    i32 6781, label %24
    i32 4391, label %25
    i32 6766, label %25
    i32 4451, label %25
    i32 6796, label %25
    i32 4445, label %26
    i32 4433, label %26
    i32 6791, label %26
    i32 4401, label %27
    i32 6776, label %27
    i32 4396, label %27
    i32 6771, label %27
    i32 4427, label %27
    i32 4422, label %27
    i32 4385, label %28
    i32 4380, label %28
    i32 4417, label %28
    i32 4412, label %28
    i32 6761, label %28
    i32 6756, label %28
  ]

3:                                                ; preds = %2
  unreachable

4:                                                ; preds = %2
  br label %29

5:                                                ; preds = %2
  br label %29

6:                                                ; preds = %2
  br label %29

7:                                                ; preds = %2
  br label %29

8:                                                ; preds = %2
  br label %29

9:                                                ; preds = %2
  br label %29

10:                                               ; preds = %2
  br label %29

11:                                               ; preds = %2
  br label %29

12:                                               ; preds = %2
  br label %29

13:                                               ; preds = %2
  br label %29

14:                                               ; preds = %2
  br label %29

15:                                               ; preds = %2
  br label %29

16:                                               ; preds = %2
  br label %29

17:                                               ; preds = %2
  br label %29

18:                                               ; preds = %2
  br label %29

19:                                               ; preds = %2
  br label %29

20:                                               ; preds = %2
  br label %29

21:                                               ; preds = %2
  br label %29

22:                                               ; preds = %2
  br label %29

23:                                               ; preds = %2
  br label %29

24:                                               ; preds = %2, %2
  br label %29

25:                                               ; preds = %2, %2, %2, %2
  br label %29

26:                                               ; preds = %2, %2, %2
  br label %29

27:                                               ; preds = %2, %2, %2, %2, %2, %2
  br label %29

28:                                               ; preds = %2, %2, %2, %2, %2, %2
  br label %29

29:                                               ; preds = %2, %28, %27, %26, %25, %24, %23, %22, %21, %20, %19, %18, %17, %16, %15, %14, %13, %12, %11, %10, %9, %8, %7, %6, %5, %4
  %.sink = phi i32 [ 1, %28 ], [ 2, %27 ], [ 4, %26 ], [ 8, %25 ], [ 16, %24 ], [ 1, %23 ], [ 1, %22 ], [ 1, %21 ], [ 1, %20 ], [ 1, %19 ], [ 1, %18 ], [ 2, %17 ], [ 2, %16 ], [ 2, %15 ], [ 2, %14 ], [ 2, %13 ], [ 2, %12 ], [ 4, %11 ], [ 4, %10 ], [ 4, %9 ], [ 8, %8 ], [ 8, %7 ], [ 8, %6 ], [ 8, %5 ], [ 16, %4 ], [ 16, %2 ]
  %.0 = phi i32 [ %0, %28 ], [ %0, %27 ], [ %0, %26 ], [ %0, %25 ], [ %0, %24 ], [ 6756, %23 ], [ 6761, %22 ], [ 4412, %21 ], [ 4417, %20 ], [ 4380, %19 ], [ 4385, %18 ], [ 4422, %17 ], [ 4427, %16 ], [ 6771, %15 ], [ 4396, %14 ], [ 6776, %13 ], [ 4401, %12 ], [ 6791, %11 ], [ 4433, %10 ], [ 4445, %9 ], [ 6796, %8 ], [ 4451, %7 ], [ 6766, %6 ], [ 4391, %5 ], [ 6781, %4 ], [ 4407, %2 ]
  store i32 %.sink, ptr %1, align 4
  ret i32 %.0
}